; Function Attrs: mustprogress nofree nounwind willreturn memory(read, inaccessiblemem: none) uwtable
define hidden noundef ptr @_ZN8ArgParse11find_optionEPKc(ptr noundef nonnull readonly align 8 captures(none) dereferenceable(112) %0, ptr noundef readonly captures(none) %1) local_unnamed_addr #12 align 2 personality ptr @__gxx_personality_v0 {
  %3 = getelementptr inbounds nuw i8, ptr %0, i64 88
  %4 = load ptr, ptr %3, align 8, !tbaa !69
  %5 = getelementptr inbounds nuw i8, ptr %0, i64 96
  %6 = load ptr, ptr %5, align 8, !tbaa !69
  %.not3536 = icmp eq ptr %4, %6
  br i1 %.not3536, label %._crit_edge, label %.lr.ph

.lr.ph:                                           ; preds = %2
  %7 = getelementptr inbounds nuw i8, ptr %1, i64 1
  br label %8

8:                                                ; preds = %.lr.ph, %.thread
  %.sroa.024.037 = phi ptr [ %4, %.lr.ph ], [ %34, %.thread ]
  %9 = load ptr, ptr %.sroa.024.037, align 8, !tbaa !65
  %10 = getelementptr inbounds nuw i8, ptr %9, i64 32
  %11 = load ptr, ptr %10, align 8, !tbaa !12
  %12 = tail call i32 @strcmp(ptr noundef nonnull dereferenceable(1) %1, ptr noundef nonnull dereferenceable(1) %11) #26
  %.not = icmp eq i32 %12, 0
  br i1 %.not, label %._crit_edge, label %13

13:                                               ; preds = %8
  %14 = load i8, ptr %1, align 1, !tbaa !14
  %15 = icmp eq i8 %14, 45
  br i1 %15, label %16, label %.thread

16:                                               ; preds = %13
  %17 = load i8, ptr %7, align 1, !tbaa !14
  %18 = icmp eq i8 %17, 45
  %19 = load i8, ptr %11, align 1, !tbaa !14
  %20 = icmp eq i8 %19, 45
  br i1 %18, label %21, label %27

21:                                               ; preds = %16
  br i1 %20, label %22, label %.thread

22:                                               ; preds = %21
  %23 = getelementptr inbounds nuw i8, ptr %11, i64 1
  %24 = load i8, ptr %23, align 1, !tbaa !14
  %.not19 = icmp eq i8 %24, 45
  br i1 %.not19, label %.thread, label %25

25:                                               ; preds = %22
  %26 = tail call i32 @strcmp(ptr noundef nonnull dereferenceable(1) %7, ptr noundef nonnull dereferenceable(1) %11) #26
  %.not20 = icmp eq i32 %26, 0
  br i1 %.not20, label %._crit_edge, label %.thread

27:                                               ; preds = %16
  br i1 %20, label %28, label %.thread

28:                                               ; preds = %27
  %29 = getelementptr inbounds nuw i8, ptr %11, i64 1
  %30 = load i8, ptr %29, align 1, !tbaa !14
  %31 = icmp eq i8 %30, 45
  br i1 %31, label %32, label %.thread

32:                                               ; preds = %28
  %33 = tail call i32 @strcmp(ptr noundef nonnull dereferenceable(1) %1, ptr noundef nonnull dereferenceable(1) %29) #26
  %.not22 = icmp eq i32 %33, 0
  br i1 %.not22, label %._crit_edge, label %.thread

.thread:                                          ; preds = %21, %22, %25, %32, %28, %27, %13
  %34 = getelementptr inbounds nuw i8, ptr %.sroa.024.037, i64 8
  %.not35 = icmp eq ptr %34, %6
  br i1 %.not35, label %._crit_edge, label %8, !llvm.loop !70

._crit_edge:                                      ; preds = %.thread, %25, %8, %32, %2
  %spec.select = phi ptr [ null, %2 ], [ %9, %32 ], [ %9, %8 ], [ %9, %25 ], [ null, %.thread ]
  ret ptr %spec.select
}